#include <math.h>
#include <stdio.h>
#include <stdlib.h>
#include <string.h>

int main()
{
	 int sushu[10000],i,n,j,s=0,flag=0,m=0;
	 for(i=2;i<10000;i++){
		 flag=0;
		 if(i==2){
            sushu[s]=i;
			s++;
		 }
		 else{
			 for(j=2;j<i;j++){
				 if(i%j==0){
					 flag=1;
					 break;
				 }
			 }
			 if(flag==0){
			 sushu[s]=i;
				 s++;
			 }
		 }
	 }
 
	 scanf("%d",&n);
	 for(i=0;sushu[i+1]<=n;i++){
		if(sushu[i+1]-sushu[i]==2){
			printf("%d %d\n",sushu[i],sushu[i+1]);
            m=1;
		}
	}
	 if(m==0){
		 printf("empty");
	 }
return 0;
}
