; ModuleID = 'source-C-CXX/59/1184.c'
source_filename = "source-C-CXX/59/1184.c"
target datalayout = "e-m:e-p270:32:32-p271:32:32-p272:64:64-i64:64-f80:128-n8:16:32:64-S128"
target triple = "x86_64-pc-linux-gnu"

@.str = private unnamed_addr constant [3 x i8] c"%d\00", align 1
@.str.1 = private unnamed_addr constant [7 x i8] c"%d %d\0A\00", align 1
@.str.2 = private unnamed_addr constant [6 x i8] c"empty\00", align 1

; Function Attrs: nofree nounwind sspstrong uwtable
define dso_local i32 @main() local_unnamed_addr #0 {
  %1 = alloca [10000 x i32], align 16
  %2 = alloca i32, align 4
  %3 = bitcast [10000 x i32]* %1 to i8*
  call void @llvm.lifetime.start.p0i8(i64 40000, i8* nonnull %3) #3
  %4 = bitcast i32* %2 to i8*
  call void @llvm.lifetime.start.p0i8(i64 4, i8* nonnull %4) #3
  br label %5

5:                                                ; preds = %0, %21
  %6 = phi i32 [ 0, %0 ], [ %22, %21 ]
  %7 = phi i32 [ 2, %0 ], [ %23, %21 ]
  %8 = icmp eq i32 %7, 2
  br i1 %8, label %16, label %11

9:                                                ; preds = %11
  %10 = icmp eq i32 %15, %7
  br i1 %10, label %16, label %11, !llvm.loop !5

11:                                               ; preds = %5, %9
  %12 = phi i32 [ %15, %9 ], [ 2, %5 ]
  %13 = urem i32 %7, %12
  %14 = icmp eq i32 %13, 0
  %15 = add nuw nsw i32 %12, 1
  br i1 %14, label %21, label %9

16:                                               ; preds = %9, %5
  %17 = phi i32 [ 2, %5 ], [ %7, %9 ]
  %18 = sext i32 %6 to i64
  %19 = getelementptr inbounds [10000 x i32], [10000 x i32]* %1, i64 0, i64 %18
  store i32 %17, i32* %19, align 4, !tbaa !7
  %20 = add nsw i32 %6, 1
  br label %21

21:                                               ; preds = %11, %16
  %22 = phi i32 [ %20, %16 ], [ %6, %11 ]
  %23 = add nuw nsw i32 %7, 1
  %24 = icmp eq i32 %23, 10000
  br i1 %24, label %25, label %5, !llvm.loop !11

25:                                               ; preds = %21
  %26 = call i32 (i8*, ...) @__isoc99_scanf(i8* getelementptr inbounds ([3 x i8], [3 x i8]* @.str, i64 0, i64 0), i32* nonnull %2)
  %27 = getelementptr inbounds [10000 x i32], [10000 x i32]* %1, i64 0, i64 1
  %28 = load i32, i32* %27, align 4, !tbaa !7
  %29 = load i32, i32* %2, align 4, !tbaa !7
  %30 = icmp sgt i32 %28, %29
  br i1 %30, label %54, label %31

31:                                               ; preds = %25, %44
  %32 = phi i32 [ %45, %44 ], [ %29, %25 ]
  %33 = phi i64 [ %51, %44 ], [ 0, %25 ]
  %34 = phi i64 [ %47, %44 ], [ 1, %25 ]
  %35 = phi i32 [ %49, %44 ], [ %28, %25 ]
  %36 = phi i32 [ %46, %44 ], [ 0, %25 ]
  %37 = getelementptr inbounds [10000 x i32], [10000 x i32]* %1, i64 0, i64 %33
  %38 = load i32, i32* %37, align 4, !tbaa !7
  %39 = sub nsw i32 %35, %38
  %40 = icmp eq i32 %39, 2
  br i1 %40, label %41, label %44

41:                                               ; preds = %31
  %42 = call i32 (i8*, ...) @printf(i8* nonnull dereferenceable(1) getelementptr inbounds ([7 x i8], [7 x i8]* @.str.1, i64 0, i64 0), i32 %38, i32 %35)
  %43 = load i32, i32* %2, align 4, !tbaa !7
  br label %44

44:                                               ; preds = %31, %41
  %45 = phi i32 [ %43, %41 ], [ %32, %31 ]
  %46 = phi i32 [ 1, %41 ], [ %36, %31 ]
  %47 = add nuw i64 %34, 1
  %48 = getelementptr inbounds [10000 x i32], [10000 x i32]* %1, i64 0, i64 %47
  %49 = load i32, i32* %48, align 4, !tbaa !7
  %50 = icmp sgt i32 %49, %45
  %51 = add nuw nsw i64 %33, 1
  br i1 %50, label %52, label %31, !llvm.loop !12

52:                                               ; preds = %44
  %53 = icmp eq i32 %46, 0
  br i1 %53, label %54, label %56

54:                                               ; preds = %25, %52
  %55 = call i32 (i8*, ...) @printf(i8* nonnull dereferenceable(1) getelementptr inbounds ([6 x i8], [6 x i8]* @.str.2, i64 0, i64 0))
  br label %56

56:                                               ; preds = %54, %52
  call void @llvm.lifetime.end.p0i8(i64 4, i8* nonnull %4) #3
  call void @llvm.lifetime.end.p0i8(i64 40000, i8* nonnull %3) #3
  ret i32 0
}

; Function Attrs: argmemonly mustprogress nofree nosync nounwind willreturn
declare void @llvm.lifetime.start.p0i8(i64 immarg, i8* nocapture) #1

; Function Attrs: nofree nounwind
declare noundef i32 @__isoc99_scanf(i8* nocapture noundef readonly, ...) local_unnamed_addr #2

; Function Attrs: nofree nounwind
declare noundef i32 @printf(i8* nocapture noundef readonly, ...) local_unnamed_addr #2

; Function Attrs: argmemonly mustprogress nofree nosync nounwind willreturn
declare void @llvm.lifetime.end.p0i8(i64 immarg, i8* nocapture) #1


!llvm.module.flags = !{!0, !1, !2, !3}
!llvm.ident = !{!4}

!0 = !{i32 1, !"wchar_size", i32 4}
!1 = !{i32 7, !"PIC Level", i32 2}
!2 = !{i32 7, !"PIE Level", i32 2}
!3 = !{i32 7, !"uwtable", i32 1}
!4 = !{!"clang version 13.0.0"}
!5 = distinct !{!5, !6}
!6 = !{!"llvm.loop.mustprogress"}
!7 = !{!8, !8, i64 0}
!8 = !{!"int", !9, i64 0}
!9 = !{!"omnipotent char", !10, i64 0}
!10 = !{!"Simple C/C++ TBAA"}
!11 = distinct !{!11, !6}
!12 = distinct !{!12, !6}
